target datalayout = "e-m:e-p270:32:32-p271:32:32-p272:64:64-i64:64-i128:128-f80:128-n8:16:32:64-S128"
target triple = "x86_64-pc-linux-gnu"

%struct.block_writer = type { ptr, ptr, i64, ptr, i32, i32, i16, i32, i32, ptr, i32, i32, %struct.reftable_buf, %struct.reftable_buf, i32 }
%struct.reftable_buf = type { i64, i64, ptr }

; Function Attrs: nounwind uwtable
define dso_local zeroext i8 @block_writer_type(ptr noundef %0) #0 {
  %2 = alloca ptr, align 8
  store ptr %0, ptr %2, align 8, !tbaa !8
  %3 = load ptr, ptr %2, align 8, !tbaa !8
  %4 = getelementptr inbounds nuw %struct.block_writer, ptr %3, i32 0, i32 3
  %5 = load ptr, ptr %4, align 8, !tbaa !14
  %6 = load ptr, ptr %2, align 8, !tbaa !8
  %7 = getelementptr inbounds nuw %struct.block_writer, ptr %6, i32 0, i32 5
  %8 = load i32, ptr %7, align 4, !tbaa !23
  %9 = zext i32 %8 to i64
  %10 = getelementptr inbounds nuw i8, ptr %5, i64 %9
  %11 = load i8, ptr %10, align 1, !tbaa !11
  ret i8 %11
}