; Function Attrs: mustprogress nofree norecurse nosync nounwind willreturn memory(read, inaccessiblemem: none) uwtable
define dso_local zeroext i8 @block_writer_type(ptr noundef readonly captures(none) %0) local_unnamed_addr #4 {
  %2 = getelementptr inbounds nuw i8, ptr %0, i64 24
  %3 = load ptr, ptr %2, align 8, !tbaa !4
  %4 = getelementptr inbounds nuw i8, ptr %0, i64 36
  %5 = load i32, ptr %4, align 4, !tbaa !18
  %6 = zext i32 %5 to i64
  %7 = getelementptr inbounds nuw i8, ptr %3, i64 %6
  %8 = load i8, ptr %7, align 1, !tbaa !19
  ret i8 %8
}